target datalayout = "e-m:e-p270:32:32-p271:32:32-p272:64:64-i64:64-i128:128-f80:128-n8:16:32:64-S128"
target triple = "x86_64-pc-linux-gnu"

%struct.OSQPVectorf_ = type { ptr, i64 }

; Function Attrs: nounwind uwtable
define double @OSQPVectorf_scaled_norm_inf(ptr noundef %0, ptr noundef %1) #0 {
  %3 = alloca ptr, align 8
  %4 = alloca ptr, align 8
  %5 = alloca i64, align 8
  %6 = alloca i64, align 8
  %7 = alloca ptr, align 8
  %8 = alloca ptr, align 8
  %9 = alloca double, align 8
  %10 = alloca double, align 8
  store ptr %0, ptr %3, align 8
  store ptr %1, ptr %4, align 8
  %11 = load ptr, ptr %4, align 8
  %12 = getelementptr inbounds %struct.OSQPVectorf_, ptr %11, i32 0, i32 1
  %13 = load i64, ptr %12, align 8
  store i64 %13, ptr %6, align 8
  %14 = load ptr, ptr %4, align 8
  %15 = getelementptr inbounds %struct.OSQPVectorf_, ptr %14, i32 0, i32 0
  %16 = load ptr, ptr %15, align 8
  store ptr %16, ptr %7, align 8
  %17 = load ptr, ptr %3, align 8
  %18 = getelementptr inbounds %struct.OSQPVectorf_, ptr %17, i32 0, i32 0
  %19 = load ptr, ptr %18, align 8
  store ptr %19, ptr %8, align 8
  store double 0.000000e+00, ptr %10, align 8
  store i64 0, ptr %5, align 8
  br label %20

20:                                               ; preds = %64, %2
  %21 = load i64, ptr %5, align 8
  %22 = load i64, ptr %6, align 8
  %23 = icmp slt i64 %21, %22
  br i1 %23, label %24, label %67

24:                                               ; preds = %20
  %25 = load ptr, ptr %8, align 8
  %26 = load i64, ptr %5, align 8
  %27 = getelementptr inbounds double, ptr %25, i64 %26
  %28 = load double, ptr %27, align 8
  %29 = load ptr, ptr %7, align 8
  %30 = load i64, ptr %5, align 8
  %31 = getelementptr inbounds double, ptr %29, i64 %30
  %32 = load double, ptr %31, align 8
  %33 = fmul double %28, %32
  %34 = fcmp olt double %33, 0.000000e+00
  br i1 %34, label %35, label %46

35:                                               ; preds = %24
  %36 = load ptr, ptr %8, align 8
  %37 = load i64, ptr %5, align 8
  %38 = getelementptr inbounds double, ptr %36, i64 %37
  %39 = load double, ptr %38, align 8
  %40 = load ptr, ptr %7, align 8
  %41 = load i64, ptr %5, align 8
  %42 = getelementptr inbounds double, ptr %40, i64 %41
  %43 = load double, ptr %42, align 8
  %44 = fmul double %39, %43
  %45 = fneg double %44
  br label %56

46:                                               ; preds = %24
  %47 = load ptr, ptr %8, align 8
  %48 = load i64, ptr %5, align 8
  %49 = getelementptr inbounds double, ptr %47, i64 %48
  %50 = load double, ptr %49, align 8
  %51 = load ptr, ptr %7, align 8
  %52 = load i64, ptr %5, align 8
  %53 = getelementptr inbounds double, ptr %51, i64 %52
  %54 = load double, ptr %53, align 8
  %55 = fmul double %50, %54
  br label %56

56:                                               ; preds = %46, %35
  %57 = phi double [ %45, %35 ], [ %55, %46 ]
  store double %57, ptr %9, align 8
  %58 = load double, ptr %9, align 8
  %59 = load double, ptr %10, align 8
  %60 = fcmp ogt double %58, %59
  br i1 %60, label %61, label %63

61:                                               ; preds = %56
  %62 = load double, ptr %9, align 8
  store double %62, ptr %10, align 8
  br label %63

63:                                               ; preds = %61, %56
  br label %64

64:                                               ; preds = %63
  %65 = load i64, ptr %5, align 8
  %66 = add nsw i64 %65, 1
  store i64 %66, ptr %5, align 8
  br label %20, !llvm.loop !29

67:                                               ; preds = %20
  %68 = load double, ptr %10, align 8
  ret double %68
}