; Function Attrs: nofree norecurse nosync nounwind memory(read, inaccessiblemem: none) uwtable
define double @OSQPVectorf_scaled_norm_inf(ptr nocapture noundef readonly %0, ptr nocapture noundef readonly %1) local_unnamed_addr #0 {
  %3 = getelementptr inbounds i8, ptr %1, i64 8
  %4 = load i64, ptr %3, align 8
  %5 = load ptr, ptr %1, align 8
  %6 = load ptr, ptr %0, align 8
  %7 = icmp sgt i64 %4, 0
  br i1 %7, label %.lr.ph, label %._crit_edge

.lr.ph:                                           ; preds = %2, %.lr.ph
  %.026 = phi double [ %.1, %.lr.ph ], [ 0.000000e+00, %2 ]
  %.02125 = phi i64 [ %17, %.lr.ph ], [ 0, %2 ]
  %8 = getelementptr inbounds double, ptr %6, i64 %.02125
  %9 = load double, ptr %8, align 8
  %10 = getelementptr inbounds double, ptr %5, i64 %.02125
  %11 = load double, ptr %10, align 8
  %12 = fmul double %9, %11
  %13 = fcmp olt double %12, 0.000000e+00
  %14 = fneg double %12
  %15 = select i1 %13, double %14, double %12
  %16 = fcmp ogt double %15, %.026
  %.1 = select i1 %16, double %15, double %.026
  %17 = add nuw nsw i64 %.02125, 1
  %exitcond.not = icmp eq i64 %17, %4
  br i1 %exitcond.not, label %._crit_edge, label %.lr.ph, !llvm.loop !29

._crit_edge:                                      ; preds = %.lr.ph, %2
  %.0.lcssa = phi double [ 0.000000e+00, %2 ], [ %.1, %.lr.ph ]
  ret double %.0.lcssa
}